; Function Attrs: mustprogress nofree norecurse nosync nounwind willreturn memory(read, argmem: readwrite, inaccessiblemem: none) uwtable
define dso_local noundef zeroext i1 @_ZN4Luau14AnyTypeSummary18FindReturnAncestry5visitEPNS_7AstNodeE(ptr noundef nonnull align 8 captures(none) dereferenceable(40) %0, ptr noundef %1) unnamed_addr #14 align 2 {
  %3 = getelementptr inbounds nuw i8, ptr %0, i64 16
  %4 = load ptr, ptr %3, align 8, !tbaa !106
  %5 = icmp eq ptr %1, %4
  br i1 %5, label %6, label %8

6:                                                ; preds = %2
  %7 = getelementptr inbounds nuw i8, ptr %0, i64 32
  store i8 1, ptr %7, align 8, !tbaa !107
  br label %8

8:                                                ; preds = %6, %2
  %9 = getelementptr inbounds nuw i8, ptr %1, i64 20
  %10 = getelementptr inbounds nuw i8, ptr %0, i64 24
  %11 = getelementptr inbounds nuw i8, ptr %1, i64 24
  %12 = load i32, ptr %11, align 4, !tbaa !374
  %13 = getelementptr inbounds nuw i8, ptr %0, i64 28
  %14 = load i32, ptr %13, align 4, !tbaa !374
  %15 = icmp eq i32 %12, %14
  %16 = load i32, ptr %9, align 4
  %17 = load i32, ptr %10, align 8
  %18 = icmp eq i32 %16, %17
  %19 = select i1 %15, i1 %18, i1 false
  br i1 %19, label %20, label %32

20:                                               ; preds = %8
  %21 = getelementptr inbounds nuw i8, ptr %4, i64 20
  %22 = getelementptr inbounds nuw i8, ptr %4, i64 24
  %23 = load i32, ptr %22, align 4, !tbaa !374
  %24 = icmp eq i32 %23, %12
  %25 = load i32, ptr %21, align 4
  %26 = icmp eq i32 %25, %16
  %27 = select i1 %24, i1 %26, i1 false
  br i1 %27, label %_ZNK4Luau8PositiongeERKS0_.exit.thread, label %_ZNK4Luau8PositiongeERKS0_.exit

_ZNK4Luau8PositiongeERKS0_.exit:                  ; preds = %20
  %28 = icmp ugt i32 %23, %12
  %29 = icmp ugt i32 %25, %16
  %.0.i.i = select i1 %26, i1 %28, i1 %29
  br i1 %.0.i.i, label %_ZNK4Luau8PositiongeERKS0_.exit.thread, label %32

_ZNK4Luau8PositiongeERKS0_.exit.thread:           ; preds = %20, %_ZNK4Luau8PositiongeERKS0_.exit
  %30 = getelementptr inbounds nuw i8, ptr %0, i64 8
  store ptr %1, ptr %30, align 8, !tbaa !102
  %31 = getelementptr inbounds nuw i8, ptr %0, i64 32
  store i8 1, ptr %31, align 8, !tbaa !107
  br label %32

32:                                               ; preds = %_ZNK4Luau8PositiongeERKS0_.exit.thread, %_ZNK4Luau8PositiongeERKS0_.exit, %8
  %33 = getelementptr inbounds nuw i8, ptr %0, i64 32
  %34 = load i8, ptr %33, align 8, !tbaa !107, !range !200, !noundef !201
  %35 = trunc nuw i8 %34 to i1
  %36 = xor i1 %35, true
  ret i1 %36
}